; Function Attrs: nounwind uwtable
define internal ptr @EVP_get_digest_size(ptr noundef readonly captures(none) %0, ptr readnone captures(none) %1) #0 {
  %3 = getelementptr inbounds nuw i8, ptr %0, i64 16
  %4 = load ptr, ptr %3, align 8, !tbaa !62
  %5 = tail call ptr @EVP_MD_CTX_get0_md(ptr noundef %4) #9
  %6 = tail call i32 @EVP_MD_get_size(ptr noundef %5) #9
  %7 = sext i32 %6 to i64
  %8 = tail call ptr @PyLong_FromLong(i64 noundef %7) #9
  ret ptr %8
}